target datalayout = "e-m:e-p270:32:32-p271:32:32-p272:64:64-i64:64-i128:128-f80:128-n8:16:32:64-S128"
target triple = "x86_64-pc-linux-gnu"

%struct.H5P_libclass_t = type { ptr, i32, ptr, ptr, ptr, ptr, ptr, ptr, ptr, ptr, ptr, ptr, ptr }

@.str = private unnamed_addr constant [11 x i8] c"map create\00", align 1
@H5P_CLS_OBJECT_CREATE_g = external global ptr, align 8
@H5P_CLS_MAP_CREATE_g = external global ptr, align 8
@H5P_CLS_MAP_CREATE_ID_g = external global i64, align 8
@H5P_LST_MAP_CREATE_ID_g = external global i64, align 8
@H5P_CLS_MCRT = constant [1 x %struct.H5P_libclass_t] [%struct.H5P_libclass_t { ptr @.str, i32 20, ptr @H5P_CLS_OBJECT_CREATE_g, ptr @H5P_CLS_MAP_CREATE_g, ptr @H5P_CLS_MAP_CREATE_ID_g, ptr @H5P_LST_MAP_CREATE_ID_g, ptr @H5P__mcrt_reg_prop, ptr null, ptr null, ptr null, ptr null, ptr null, ptr null }], align 16

; Function Attrs: nounwind uwtable
define internal i32 @H5P__mcrt_reg_prop(ptr noundef %0) #0 {
  %2 = alloca ptr, align 8
  %3 = alloca i32, align 4
  store ptr %0, ptr %2, align 8
  store i32 0, ptr %3, align 4
  %4 = load i32, ptr %3, align 4
  ret i32 %4
}


!llvm.module.flags = !{!0, !1, !2, !3}

!0 = !{i32 1, !"wchar_size", i32 4}
!1 = !{i32 8, !"PIC Level", i32 2}
!2 = !{i32 7, !"uwtable", i32 2}
!3 = !{i32 7, !"frame-pointer", i32 2}
